target datalayout = "e-m:e-p270:32:32-p271:32:32-p272:64:64-i64:64-i128:128-f80:128-n8:16:32:64-S128"
target triple = "x86_64-pc-linux-gnu"

%struct.Dsd_Cache_t_ = type { ptr, i32, i32, i32 }
%struct.Dsd_Entry_t_ = type { [5 x ptr] }

@pCache = internal global ptr null, align 8

; Function Attrs: nounwind uwtable
define void @Dsd_CheckCacheClear() #0 {
  %1 = alloca i32, align 4
  call void @llvm.lifetime.start.p0(i64 4, ptr %1) #7
  store i32 0, ptr %1, align 4, !tbaa !3
  br label %2

2:                                                ; preds = %15, %0
  %3 = load i32, ptr %1, align 4, !tbaa !3
  %4 = load ptr, ptr @pCache, align 8, !tbaa !7
  %5 = getelementptr inbounds nuw %struct.Dsd_Cache_t_, ptr %4, i32 0, i32 1
  %6 = load i32, ptr %5, align 8, !tbaa !10
  %7 = icmp slt i32 %3, %6
  br i1 %7, label %8, label %18

8:                                                ; preds = %2
  %9 = load ptr, ptr @pCache, align 8, !tbaa !7
  %10 = getelementptr inbounds nuw %struct.Dsd_Cache_t_, ptr %9, i32 0, i32 0
  %11 = load ptr, ptr %10, align 8, !tbaa !13
  %12 = getelementptr inbounds %struct.Dsd_Entry_t_, ptr %11, i64 0
  %13 = getelementptr inbounds nuw %struct.Dsd_Entry_t_, ptr %12, i32 0, i32 0
  %14 = getelementptr inbounds [5 x ptr], ptr %13, i64 0, i64 0
  store ptr null, ptr %14, align 8, !tbaa !17
  br label %15

15:                                               ; preds = %8
  %16 = load i32, ptr %1, align 4, !tbaa !3
  %17 = add nsw i32 %16, 1
  store i32 %17, ptr %1, align 4, !tbaa !3
  br label %2, !llvm.loop !19

18:                                               ; preds = %2
  call void @llvm.lifetime.end.p0(i64 4, ptr %1) #7
  ret void
}