; Function Attrs: mustprogress nofree norecurse nosync nounwind willreturn memory(readwrite, inaccessiblemem: none) uwtable
define void @Dsd_CheckCacheClear() local_unnamed_addr #5 {
  %1 = load ptr, ptr @pCache, align 8, !tbaa !3
  %2 = getelementptr inbounds nuw i8, ptr %1, i64 8
  %3 = load i32, ptr %2, align 8, !tbaa !11
  %4 = icmp sgt i32 %3, 0
  br i1 %4, label %.lr.ph, label %._crit_edge

.lr.ph:                                           ; preds = %0
  %5 = load ptr, ptr %1, align 8, !tbaa !15
  store ptr null, ptr %5, align 8, !tbaa !16
  br label %._crit_edge

._crit_edge:                                      ; preds = %.lr.ph, %0
  ret void
}